
single_clap_switch:     file format elf32-littleriscv


Disassembly of section .text:

00010094 <main>:
   10094:	ff010113          	add	sp,sp,-16
   10098:	00112623          	sw	ra,12(sp)
   1009c:	00812423          	sw	s0,8(sp)
   100a0:	01010413          	add	s0,sp,16
   100a4:	120000ef          	jal	101c4 <read>
   100a8:	ffdff06f          	j	100a4 <main+0x10>

000100ac <sensor_data>:
   100ac:	fe010113          	add	sp,sp,-32
   100b0:	00812e23          	sw	s0,28(sp)
   100b4:	02010413          	add	s0,sp,32
   100b8:	001f7793          	and	a5,t5,1
   100bc:	fef42623          	sw	a5,-20(s0)
   100c0:	fec42783          	lw	a5,-20(s0)
   100c4:	00078513          	mv	a0,a5
   100c8:	01c12403          	lw	s0,28(sp)
   100cc:	02010113          	add	sp,sp,32
   100d0:	00008067          	ret

000100d4 <output_indicator>:
   100d4:	fd010113          	add	sp,sp,-48
   100d8:	02812623          	sw	s0,44(sp)
   100dc:	03010413          	add	s0,sp,48
   100e0:	fca42e23          	sw	a0,-36(s0)
   100e4:	ffd00793          	li	a5,-3
   100e8:	fef42623          	sw	a5,-20(s0)
   100ec:	fdc42783          	lw	a5,-36(s0)
   100f0:	00179793          	sll	a5,a5,0x1
   100f4:	fef42423          	sw	a5,-24(s0)
   100f8:	fe842783          	lw	a5,-24(s0)
   100fc:	fec42703          	lw	a4,-20(s0)
   10100:	00ef7f33          	and	t5,t5,a4
   10104:	00ff6f33          	or	t5,t5,a5
   10108:	00000013          	nop
   1010c:	02c12403          	lw	s0,44(sp)
   10110:	03010113          	add	sp,sp,48
   10114:	00008067          	ret

00010118 <output_bulb>:
   10118:	fd010113          	add	sp,sp,-48
   1011c:	02812623          	sw	s0,44(sp)
   10120:	03010413          	add	s0,sp,48
   10124:	fca42e23          	sw	a0,-36(s0)
   10128:	ffb00793          	li	a5,-5
   1012c:	fef42623          	sw	a5,-20(s0)
   10130:	fdc42783          	lw	a5,-36(s0)
   10134:	00279793          	sll	a5,a5,0x2
   10138:	fef42423          	sw	a5,-24(s0)
   1013c:	fe842783          	lw	a5,-24(s0)
   10140:	fec42703          	lw	a4,-20(s0)
   10144:	00ef7f33          	and	t5,t5,a4
   10148:	00ff6f33          	or	t5,t5,a5
   1014c:	00000013          	nop
   10150:	02c12403          	lw	s0,44(sp)
   10154:	03010113          	add	sp,sp,48
   10158:	00008067          	ret

0001015c <delay>:
   1015c:	fd010113          	add	sp,sp,-48
   10160:	02812623          	sw	s0,44(sp)
   10164:	03010413          	add	s0,sp,48
   10168:	fca42e23          	sw	a0,-36(s0)
   1016c:	fe042623          	sw	zero,-20(s0)
   10170:	0340006f          	j	101a4 <delay+0x48>
   10174:	fe042423          	sw	zero,-24(s0)
   10178:	0100006f          	j	10188 <delay+0x2c>
   1017c:	fe842783          	lw	a5,-24(s0)
   10180:	00178793          	add	a5,a5,1
   10184:	fef42423          	sw	a5,-24(s0)
   10188:	fe842703          	lw	a4,-24(s0)
   1018c:	000f47b7          	lui	a5,0xf4
   10190:	23f78793          	add	a5,a5,575 # f423f <__global_pointer$+0xe27f3>
   10194:	fee7d4e3          	bge	a5,a4,1017c <delay+0x20>
   10198:	fec42783          	lw	a5,-20(s0)
   1019c:	00178793          	add	a5,a5,1
   101a0:	fef42623          	sw	a5,-20(s0)
   101a4:	fec42703          	lw	a4,-20(s0)
   101a8:	fdc42783          	lw	a5,-36(s0)
   101ac:	fcf744e3          	blt	a4,a5,10174 <delay+0x18>
   101b0:	00000013          	nop
   101b4:	00000013          	nop
   101b8:	02c12403          	lw	s0,44(sp)
   101bc:	03010113          	add	sp,sp,48
   101c0:	00008067          	ret

000101c4 <read>:
   101c4:	fe010113          	add	sp,sp,-32
   101c8:	00112e23          	sw	ra,28(sp)
   101cc:	00812c23          	sw	s0,24(sp)
   101d0:	02010413          	add	s0,sp,32
   101d4:	ed9ff0ef          	jal	100ac <sensor_data>
   101d8:	fea42623          	sw	a0,-20(s0)
   101dc:	fec42703          	lw	a4,-20(s0)
   101e0:	00100793          	li	a5,1
   101e4:	04f71a63          	bne	a4,a5,10238 <read+0x74>
   101e8:	00100513          	li	a0,1
   101ec:	ee9ff0ef          	jal	100d4 <output_indicator>
   101f0:	000117b7          	lui	a5,0x11
   101f4:	24c7a703          	lw	a4,588(a5) # 1124c <__DATA_BEGIN__>
   101f8:	00100793          	li	a5,1
   101fc:	00f71c63          	bne	a4,a5,10214 <read+0x50>
   10200:	000117b7          	lui	a5,0x11
   10204:	2407a623          	sw	zero,588(a5) # 1124c <__DATA_BEGIN__>
   10208:	00000513          	li	a0,0
   1020c:	f0dff0ef          	jal	10118 <output_bulb>
   10210:	0180006f          	j	10228 <read+0x64>
   10214:	000117b7          	lui	a5,0x11
   10218:	00100713          	li	a4,1
   1021c:	24e7a623          	sw	a4,588(a5) # 1124c <__DATA_BEGIN__>
   10220:	00100513          	li	a0,1
   10224:	ef5ff0ef          	jal	10118 <output_bulb>
   10228:	1f400513          	li	a0,500
   1022c:	f31ff0ef          	jal	1015c <delay>
   10230:	00000513          	li	a0,0
   10234:	ea1ff0ef          	jal	100d4 <output_indicator>
   10238:	00000013          	nop
   1023c:	01c12083          	lw	ra,28(sp)
   10240:	01812403          	lw	s0,24(sp)
   10244:	02010113          	add	sp,sp,32
   10248:	00008067          	ret
